target datalayout = "e-m:e-p270:32:32-p271:32:32-p272:64:64-i64:64-i128:128-f80:128-n8:16:32:64-S128"
target triple = "x86_64-pc-linux-gnu"

%struct.Abc_TtStore_t_ = type { i32, i32, i32, ptr }

; Function Attrs: nounwind uwtable
define ptr @Abc_TruthStoreAlloc2(i32 noundef %0, i32 noundef %1, ptr noundef %2) #0 {
  %4 = alloca i32, align 4
  %5 = alloca i32, align 4
  %6 = alloca ptr, align 8
  %7 = alloca ptr, align 8
  %8 = alloca i32, align 4
  store i32 %0, ptr %4, align 4, !tbaa !10
  store i32 %1, ptr %5, align 4, !tbaa !10
  store ptr %2, ptr %6, align 8, !tbaa !3
  call void @llvm.lifetime.start.p0(i64 8, ptr %7) #12
  call void @llvm.lifetime.start.p0(i64 4, ptr %8) #12
  %9 = call noalias ptr @malloc(i64 noundef 24) #13
  store ptr %9, ptr %7, align 8, !tbaa !20
  %10 = load i32, ptr %4, align 4, !tbaa !10
  %11 = load ptr, ptr %7, align 8, !tbaa !20
  %12 = getelementptr inbounds nuw %struct.Abc_TtStore_t_, ptr %11, i32 0, i32 0
  store i32 %10, ptr %12, align 8, !tbaa !22
  %13 = load i32, ptr %4, align 4, !tbaa !10
  %14 = icmp slt i32 %13, 7
  br i1 %14, label %15, label %16

15:                                               ; preds = %3
  br label %20

16:                                               ; preds = %3
  %17 = load i32, ptr %4, align 4, !tbaa !10
  %18 = sub nsw i32 %17, 6
  %19 = shl i32 1, %18
  br label %20

20:                                               ; preds = %16, %15
  %21 = phi i32 [ 1, %15 ], [ %19, %16 ]
  %22 = load ptr, ptr %7, align 8, !tbaa !20
  %23 = getelementptr inbounds nuw %struct.Abc_TtStore_t_, ptr %22, i32 0, i32 1
  store i32 %21, ptr %23, align 4, !tbaa !25
  %24 = load i32, ptr %5, align 4, !tbaa !10
  %25 = load ptr, ptr %7, align 8, !tbaa !20
  %26 = getelementptr inbounds nuw %struct.Abc_TtStore_t_, ptr %25, i32 0, i32 2
  store i32 %24, ptr %26, align 8, !tbaa !26
  %27 = load ptr, ptr %7, align 8, !tbaa !20
  %28 = getelementptr inbounds nuw %struct.Abc_TtStore_t_, ptr %27, i32 0, i32 2
  %29 = load i32, ptr %28, align 8, !tbaa !26
  %30 = sext i32 %29 to i64
  %31 = mul i64 8, %30
  %32 = call noalias ptr @malloc(i64 noundef %31) #13
  %33 = load ptr, ptr %7, align 8, !tbaa !20
  %34 = getelementptr inbounds nuw %struct.Abc_TtStore_t_, ptr %33, i32 0, i32 3
  store ptr %32, ptr %34, align 8, !tbaa !27
  %35 = load ptr, ptr %6, align 8, !tbaa !3
  %36 = load ptr, ptr %7, align 8, !tbaa !20
  %37 = getelementptr inbounds nuw %struct.Abc_TtStore_t_, ptr %36, i32 0, i32 3
  %38 = load ptr, ptr %37, align 8, !tbaa !27
  %39 = getelementptr inbounds ptr, ptr %38, i64 0
  store ptr %35, ptr %39, align 8, !tbaa !3
  store i32 1, ptr %8, align 4, !tbaa !10
  br label %40

40:                                               ; preds = %66, %20
  %41 = load i32, ptr %8, align 4, !tbaa !10
  %42 = load ptr, ptr %7, align 8, !tbaa !20
  %43 = getelementptr inbounds nuw %struct.Abc_TtStore_t_, ptr %42, i32 0, i32 2
  %44 = load i32, ptr %43, align 8, !tbaa !26
  %45 = icmp slt i32 %41, %44
  br i1 %45, label %46, label %69

46:                                               ; preds = %40
  %47 = load ptr, ptr %7, align 8, !tbaa !20
  %48 = getelementptr inbounds nuw %struct.Abc_TtStore_t_, ptr %47, i32 0, i32 3
  %49 = load ptr, ptr %48, align 8, !tbaa !27
  %50 = load i32, ptr %8, align 4, !tbaa !10
  %51 = sub nsw i32 %50, 1
  %52 = sext i32 %51 to i64
  %53 = getelementptr inbounds ptr, ptr %49, i64 %52
  %54 = load ptr, ptr %53, align 8, !tbaa !3
  %55 = load ptr, ptr %7, align 8, !tbaa !20
  %56 = getelementptr inbounds nuw %struct.Abc_TtStore_t_, ptr %55, i32 0, i32 1
  %57 = load i32, ptr %56, align 4, !tbaa !25
  %58 = sext i32 %57 to i64
  %59 = getelementptr inbounds i64, ptr %54, i64 %58
  %60 = load ptr, ptr %7, align 8, !tbaa !20
  %61 = getelementptr inbounds nuw %struct.Abc_TtStore_t_, ptr %60, i32 0, i32 3
  %62 = load ptr, ptr %61, align 8, !tbaa !27
  %63 = load i32, ptr %8, align 4, !tbaa !10
  %64 = sext i32 %63 to i64
  %65 = getelementptr inbounds ptr, ptr %62, i64 %64
  store ptr %59, ptr %65, align 8, !tbaa !3
  br label %66

66:                                               ; preds = %46
  %67 = load i32, ptr %8, align 4, !tbaa !10
  %68 = add nsw i32 %67, 1
  store i32 %68, ptr %8, align 4, !tbaa !10
  br label %40, !llvm.loop !29

69:                                               ; preds = %40
  %70 = load ptr, ptr %7, align 8, !tbaa !20
  call void @llvm.lifetime.end.p0(i64 4, ptr %8) #12
  call void @llvm.lifetime.end.p0(i64 8, ptr %7) #12
  ret ptr %70
}