; Function Attrs: nofree nounwind memory(readwrite, argmem: none) uwtable
define noalias noundef ptr @Abc_TruthStoreAlloc2(i32 noundef %0, i32 noundef %1, ptr noundef %2) local_unnamed_addr #3 {
  %4 = tail call noalias dereferenceable_or_null(24) ptr @malloc(i64 noundef 24) #22
  store i32 %0, ptr %4, align 8, !tbaa !11
  %5 = icmp slt i32 %0, 7
  %6 = add nsw i32 %0, -6
  %7 = shl nuw i32 1, %6
  %8 = select i1 %5, i32 1, i32 %7
  %9 = getelementptr inbounds nuw i8, ptr %4, i64 4
  store i32 %8, ptr %9, align 4, !tbaa !16
  %10 = getelementptr inbounds nuw i8, ptr %4, i64 8
  store i32 %1, ptr %10, align 8, !tbaa !17
  %11 = sext i32 %1 to i64
  %12 = shl nsw i64 %11, 3
  %13 = tail call noalias ptr @malloc(i64 noundef %12) #22
  %14 = getelementptr inbounds nuw i8, ptr %4, i64 16
  store ptr %13, ptr %14, align 8, !tbaa !18
  store ptr %2, ptr %13, align 8, !tbaa !19
  %15 = icmp sgt i32 %1, 1
  br i1 %15, label %.lr.ph, label %._crit_edge

.lr.ph:                                           ; preds = %3
  %16 = sext i32 %8 to i64
  %wide.trip.count = zext nneg i32 %1 to i64
  %load_initial = load ptr, ptr %13, align 8
  br label %17

17:                                               ; preds = %.lr.ph, %17
  %store_forwarded = phi ptr [ %load_initial, %.lr.ph ], [ %19, %17 ]
  %indvars.iv = phi i64 [ 1, %.lr.ph ], [ %indvars.iv.next, %17 ]
  %18 = getelementptr ptr, ptr %13, i64 %indvars.iv
  %19 = getelementptr inbounds i64, ptr %store_forwarded, i64 %16
  store ptr %19, ptr %18, align 8, !tbaa !19
  %indvars.iv.next = add nuw nsw i64 %indvars.iv, 1
  %exitcond.not = icmp eq i64 %indvars.iv.next, %wide.trip.count
  br i1 %exitcond.not, label %._crit_edge, label %17, !llvm.loop !22

._crit_edge:                                      ; preds = %17, %3
  ret ptr %4
}